; Function Attrs: nounwind uwtable
define internal i32 @_sort_job_by_partition(ptr noundef readonly captures(none) %0, ptr noundef readonly captures(none) %1) #0 {
  %.val = load ptr, ptr %0, align 8
  %3 = getelementptr i8, ptr %.val, i64 16
  %.val.val = load ptr, ptr %3, align 8
  %4 = load ptr, ptr %1, align 8
  %5 = getelementptr inbounds nuw i8, ptr %4, i64 16
  %6 = load ptr, ptr %5, align 8
  %7 = tail call i32 @xstrcmp(ptr noundef %.val.val, ptr noundef %6) #11
  %.b3 = load i1, ptr @reverse_order, align 1
  %8 = sub nsw i32 0, %7
  %spec.select = select i1 %.b3, i32 %8, i32 %7
  ret i32 %spec.select
}